; Function Attrs: nounwind uwtable
define internal zeroext i1 @_local_file_writable(ptr noundef readonly captures(none) %0) #0 {
  %2 = getelementptr inbounds nuw i8, ptr %0, i64 8
  %3 = load ptr, ptr %2, align 8
  %4 = getelementptr inbounds nuw i8, ptr %3, i64 68
  %5 = load i8, ptr %4, align 4, !range !8, !noundef !9
  %6 = trunc nuw i8 %5 to i1
  br i1 %6, label %14, label %7

7:                                                ; preds = %1
  %8 = getelementptr inbounds nuw i8, ptr %3, i64 56
  %9 = load ptr, ptr %8, align 8
  %.not = icmp eq ptr %9, null
  br i1 %.not, label %10, label %14

10:                                               ; preds = %7
  %11 = getelementptr inbounds nuw i8, ptr %3, i64 48
  %12 = load ptr, ptr %11, align 8
  %13 = tail call i32 @list_is_empty(ptr noundef %12) #11
  %.not5 = icmp eq i32 %13, 0
  br label %14

14:                                               ; preds = %10, %7, %1
  %.0 = phi i1 [ false, %1 ], [ true, %7 ], [ %.not5, %10 ]
  ret i1 %.0
}